target datalayout = "e-m:e-p270:32:32-p271:32:32-p272:64:64-i64:64-i128:128-f80:128-n8:16:32:64-S128"
target triple = "x86_64-unknown-linux-gnu"

%"class.std::__shared_count" = type { ptr }
%"struct.std::_Rb_tree_header" = type { %"struct.std::_Rb_tree_node_base", i64 }
%"struct.std::_Rb_tree_node_base" = type { i32, ptr, ptr, ptr }
%"class.std::function" = type { %"class.std::_Function_base", ptr }
%"class.std::_Function_base" = type { %"union.std::_Any_data", ptr }
%"union.std::_Any_data" = type { %"union.std::_Nocopy_types" }
%"union.std::_Nocopy_types" = type { { i64, i64 } }
%"class.std::vector" = type { %"struct.std::_Vector_base" }
%"struct.std::_Vector_base" = type { %"struct.std::_Vector_base<std::shared_ptr<const openvdb::v11_0::GridBase>, std::allocator<std::shared_ptr<const openvdb::v11_0::GridBase>>>::_Vector_impl" }
%"struct.std::_Vector_base<std::shared_ptr<const openvdb::v11_0::GridBase>, std::allocator<std::shared_ptr<const openvdb::v11_0::GridBase>>>::_Vector_impl" = type { %"struct.std::_Vector_base<std::shared_ptr<const openvdb::v11_0::GridBase>, std::allocator<std::shared_ptr<const openvdb::v11_0::GridBase>>>::_Vector_impl_data" }
%"struct.std::_Vector_base<std::shared_ptr<const openvdb::v11_0::GridBase>, std::allocator<std::shared_ptr<const openvdb::v11_0::GridBase>>>::_Vector_impl_data" = type { ptr, ptr, ptr }
%"class.openvdb::v11_0::io::(anonymous namespace)::OutputTask" = type { %"class.openvdb::v11_0::io::(anonymous namespace)::Task", %"class.std::vector", %"class.std::shared_ptr.28", %"class.openvdb::v11_0::MetaMap" }
%"class.openvdb::v11_0::io::(anonymous namespace)::Task" = type { ptr, i32, %"class.std::function" }
%"class.std::shared_ptr.28" = type { %"class.std::__shared_ptr.29" }
%"class.std::__shared_ptr.29" = type { ptr, %"class.std::__shared_count" }
%"class.openvdb::v11_0::MetaMap" = type { ptr, %"class.std::map.20" }
%"class.std::map.20" = type { %"class.std::_Rb_tree.21" }
%"class.std::_Rb_tree.21" = type { %"struct.std::_Rb_tree<std::__cxx11::basic_string<char>, std::pair<const std::__cxx11::basic_string<char>, std::shared_ptr<openvdb::v11_0::Metadata>>, std::_Select1st<std::pair<const std::__cxx11::basic_string<char>, std::shared_ptr<openvdb::v11_0::Metadata>>>, std::less<std::__cxx11::basic_string<char>>>::_Rb_tree_impl" }
%"struct.std::_Rb_tree<std::__cxx11::basic_string<char>, std::pair<const std::__cxx11::basic_string<char>, std::shared_ptr<openvdb::v11_0::Metadata>>, std::_Select1st<std::pair<const std::__cxx11::basic_string<char>, std::shared_ptr<openvdb::v11_0::Metadata>>>, std::less<std::__cxx11::basic_string<char>>>::_Rb_tree_impl" = type { %"struct.std::_Rb_tree_key_compare.25", %"struct.std::_Rb_tree_header" }
%"struct.std::_Rb_tree_key_compare.25" = type { %"struct.std::less.26" }
%"struct.std::less.26" = type { i8 }
%class.anon = type { %"class.openvdb::v11_0::io::(anonymous namespace)::OutputTask" }
%"class.tbb::detail::d1::small_object_allocator" = type { ptr }
%"class.tbb::detail::d1::enqueue_task" = type { %"class.tbb::detail::d1::task", %"class.tbb::detail::d1::small_object_allocator", %class.anon, [40 x i8] }
%"class.tbb::detail::d1::task" = type { ptr, %"class.tbb::detail::d1::task_traits", [6 x i64] }
%"class.tbb::detail::d1::task_traits" = type { i64 }

; Function Attrs: mustprogress nounwind uwtable
define linkonce_odr void @_ZN3tbb6detail2d120call_itt_task_notifyENS1_11notify_typeEPv(i32 noundef %0, ptr noundef %1) #5 comdat {
entry:
  %.addr = alloca i32, align 4
  %.addr1 = alloca ptr, align 8
  store i32 %0, ptr %.addr, align 4
  store ptr %1, ptr %.addr1, align 8
  ret void
}

; Function Attrs: mustprogress uwtable
define internal void @_ZN3tbb6detail2d122small_object_allocator10deallocateINS1_12enqueue_taskIZN7openvdb5v11_02io5Queue4Impl7enqueueERNS7_12_GLOBAL__N_110OutputTaskEEUlvE_EEEEvPT_RKNS1_14execution_dataE(ptr noundef nonnull align 8 dereferenceable(8) %this, ptr noundef %ptr, ptr noundef nonnull align 8 dereferenceable(12) %ed) #4 align 2 {
entry:
  %this.addr = alloca ptr, align 8
  %ptr.addr = alloca ptr, align 8
  %ed.addr = alloca ptr, align 8
  store ptr %this, ptr %this.addr, align 8
  store ptr %ptr, ptr %ptr.addr, align 8
  store ptr %ed, ptr %ed.addr, align 8
  %this1 = load ptr, ptr %this.addr, align 8
  %0 = load ptr, ptr %ptr.addr, align 8
  call void @_ZN3tbb6detail2d120call_itt_task_notifyENS1_11notify_typeEPv(i32 noundef 4, ptr noundef %0)
  %m_pool = getelementptr inbounds %"class.tbb::detail::d1::small_object_allocator", ptr %this1, i32 0, i32 0
  %1 = load ptr, ptr %m_pool, align 8
  %2 = load ptr, ptr %ptr.addr, align 8
  %3 = load ptr, ptr %ed.addr, align 8
  call void @_ZN3tbb6detail2r110deallocateERNS0_2d117small_object_poolEPvmRKNS2_14execution_dataE(ptr noundef nonnull align 1 dereferenceable(1) %1, ptr noundef %2, i64 noundef 256, ptr noundef nonnull align 8 dereferenceable(12) %3)
  ret void
}

; Function Attrs: mustprogress uwtable
define internal void @_ZN3tbb6detail2d122small_object_allocator13delete_objectINS1_12enqueue_taskIZN7openvdb5v11_02io5Queue4Impl7enqueueERNS7_12_GLOBAL__N_110OutputTaskEEUlvE_EEEEvPT_RKNS1_14execution_dataE(ptr noundef nonnull align 8 dereferenceable(8) %this, ptr noundef %object, ptr noundef nonnull align 8 dereferenceable(12) %ed) #4 align 2 {
entry:
  %this.addr = alloca ptr, align 8
  %object.addr = alloca ptr, align 8
  %ed.addr = alloca ptr, align 8
  %alloc = alloca %"class.tbb::detail::d1::small_object_allocator", align 8
  store ptr %this, ptr %this.addr, align 8
  store ptr %object, ptr %object.addr, align 8
  store ptr %ed, ptr %ed.addr, align 8
  %this1 = load ptr, ptr %this.addr, align 8
  call void @llvm.memcpy.p0.p0.i64(ptr align 8 %alloc, ptr align 8 %this1, i64 8, i1 false)
  %0 = load ptr, ptr %object.addr, align 8
  %vtable = load ptr, ptr %0, align 64
  %vfn = getelementptr inbounds ptr, ptr %vtable, i64 0
  %1 = load ptr, ptr %vfn, align 8
  call void %1(ptr noundef nonnull align 64 dereferenceable(216) %0) #3
  %2 = load ptr, ptr %object.addr, align 8
  %3 = load ptr, ptr %ed.addr, align 8
  call void @_ZN3tbb6detail2d122small_object_allocator10deallocateINS1_12enqueue_taskIZN7openvdb5v11_02io5Queue4Impl7enqueueERNS7_12_GLOBAL__N_110OutputTaskEEUlvE_EEEEvPT_RKNS1_14execution_dataE(ptr noundef nonnull align 8 dereferenceable(8) %alloc, ptr noundef %2, ptr noundef nonnull align 8 dereferenceable(12) %3)
  ret void
}

; Function Attrs: mustprogress uwtable
define internal void @_ZN3tbb6detail2d112enqueue_taskIZN7openvdb5v11_02io5Queue4Impl7enqueueERNS5_12_GLOBAL__N_110OutputTaskEEUlvE_E8finalizeERKNS1_14execution_dataE(ptr noundef nonnull align 64 dereferenceable(216) %this, ptr noundef nonnull align 8 dereferenceable(12) %ed) #4 align 2 {
entry:
  %this.addr = alloca ptr, align 8
  %ed.addr = alloca ptr, align 8
  store ptr %this, ptr %this.addr, align 8
  store ptr %ed, ptr %ed.addr, align 8
  %this1 = load ptr, ptr %this.addr, align 8
  %m_allocator = getelementptr inbounds %"class.tbb::detail::d1::enqueue_task", ptr %this1, i32 0, i32 1
  %0 = load ptr, ptr %ed.addr, align 8
  call void @_ZN3tbb6detail2d122small_object_allocator13delete_objectINS1_12enqueue_taskIZN7openvdb5v11_02io5Queue4Impl7enqueueERNS7_12_GLOBAL__N_110OutputTaskEEUlvE_EEEEvPT_RKNS1_14execution_dataE(ptr noundef nonnull align 8 dereferenceable(8) %m_allocator, ptr noundef %this1, ptr noundef nonnull align 8 dereferenceable(12) %0)
  ret void
}

; Function Attrs: mustprogress uwtable
define internal void @_ZZN7openvdb5v11_02io5Queue4Impl7enqueueERNS1_12_GLOBAL__N_110OutputTaskEENKUlvE_clEv(ptr noundef nonnull align 8 dereferenceable(144) %this) #4 align 2 {
entry:
  %this.addr = alloca ptr, align 8
  store ptr %this, ptr %this.addr, align 8
  %this1 = load ptr, ptr %this.addr, align 8
  %0 = getelementptr inbounds %class.anon, ptr %this1, i32 0, i32 0
  call void @_ZNK7openvdb5v11_02io12_GLOBAL__N_110OutputTask7executeEv(ptr noundef nonnull align 8 dereferenceable(144) %0)
  ret void
}

; Function Attrs: mustprogress uwtable
define internal noundef ptr @_ZN3tbb6detail2d112enqueue_taskIZN7openvdb5v11_02io5Queue4Impl7enqueueERNS5_12_GLOBAL__N_110OutputTaskEEUlvE_E7executeERNS1_14execution_dataE(ptr noundef nonnull align 64 dereferenceable(216) %this, ptr noundef nonnull align 8 dereferenceable(12) %ed) unnamed_addr #4 align 2 {
entry:
  %this.addr = alloca ptr, align 8
  %ed.addr = alloca ptr, align 8
  store ptr %this, ptr %this.addr, align 8
  store ptr %ed, ptr %ed.addr, align 8
  %this1 = load ptr, ptr %this.addr, align 8
  %m_func = getelementptr inbounds %"class.tbb::detail::d1::enqueue_task", ptr %this1, i32 0, i32 2
  call void @_ZZN7openvdb5v11_02io5Queue4Impl7enqueueERNS1_12_GLOBAL__N_110OutputTaskEENKUlvE_clEv(ptr noundef nonnull align 8 dereferenceable(144) %m_func)
  %0 = load ptr, ptr %ed.addr, align 8
  call void @_ZN3tbb6detail2d112enqueue_taskIZN7openvdb5v11_02io5Queue4Impl7enqueueERNS5_12_GLOBAL__N_110OutputTaskEEUlvE_E8finalizeERKNS1_14execution_dataE(ptr noundef nonnull align 64 dereferenceable(216) %this1, ptr noundef nonnull align 8 dereferenceable(12) %0)
  ret ptr null
}