; Function Attrs: mustprogress uwtable
define internal noundef ptr @_ZN3tbb6detail2d112enqueue_taskIZN7openvdb5v11_02io5Queue4Impl7enqueueERNS5_12_GLOBAL__N_110OutputTaskEEUlvE_E7executeERNS1_14execution_dataE(ptr noundef nonnull align 64 dereferenceable(216) %this, ptr noundef nonnull align 8 dereferenceable(12) %ed) unnamed_addr #5 align 2 {
entry:
  %m_func = getelementptr inbounds i8, ptr %this, i64 72
  tail call void @_ZNK7openvdb5v11_02io12_GLOBAL__N_110OutputTask7executeEv(ptr noundef nonnull align 8 dereferenceable(144) %m_func)
  %m_allocator.i = getelementptr inbounds i8, ptr %this, i64 64
  %m_allocator.val.i = load i64, ptr %m_allocator.i, align 64
  %0 = inttoptr i64 %m_allocator.val.i to ptr
  %vtable.i.i = load ptr, ptr %this, align 64
  %1 = load ptr, ptr %vtable.i.i, align 8
  tail call void %1(ptr noundef nonnull align 64 dereferenceable(216) %this) #20
  tail call void @_ZN3tbb6detail2r110deallocateERNS0_2d117small_object_poolEPvmRKNS2_14execution_dataE(ptr noundef nonnull align 1 dereferenceable(1) %0, ptr noundef nonnull %this, i64 noundef 256, ptr noundef nonnull align 8 dereferenceable(12) %ed)
  ret ptr null
}